target datalayout = "e-m:e-p270:32:32-p271:32:32-p272:64:64-i64:64-i128:128-f80:128-n8:16:32:64-S128"
target triple = "x86_64-pc-linux-gnu"

%class.GrowableArrayBase = type { i32, i32 }
%class.GrowableArrayMetadata = type { i64 }
%class.GraphBuilder = type <{ ptr, ptr, ptr, ptr, ptr, i32, [4 x i8], ptr, ptr, ptr, ptr, ptr, ptr, i8, [7 x i8] }>
%class.GrowableArray.17 = type { %class.GrowableArrayWithAllocator.18, %class.GrowableArrayMetadata }
%class.GrowableArrayWithAllocator.18 = type { %class.GrowableArrayView.19 }
%class.GrowableArrayView.19 = type { %class.GrowableArrayBase, ptr }
%class.ValueStack = type <{ ptr, ptr, i32, i32, %class.GrowableArray.17, %class.GrowableArray.17, ptr, i8, [7 x i8] }>

; Function Attrs: mustprogress nounwind uwtable
define linkonce_odr hidden noundef nonnull align 8 dereferenceable(8) ptr @_ZNK17GrowableArrayViewIP11InstructionE2atEi(ptr noundef nonnull align 8 dereferenceable(16) %0, i32 noundef %1) #1 comdat align 2 {
  %3 = alloca ptr, align 8
  %4 = alloca i32, align 4
  store ptr %0, ptr %3, align 8
  store i32 %1, ptr %4, align 4
  %5 = load ptr, ptr %3, align 8
  %6 = getelementptr inbounds %class.GrowableArrayView.19, ptr %5, i32 0, i32 1
  %7 = load ptr, ptr %6, align 8
  %8 = load i32, ptr %4, align 4
  %9 = sext i32 %8 to i64
  %10 = getelementptr inbounds ptr, ptr %7, i64 %9
  ret ptr %10
}

; Function Attrs: mustprogress nounwind uwtable
define linkonce_odr hidden void @_ZNK12GraphBuilder4pushEP9ValueTypeP11Instruction(ptr noundef nonnull align 8 dereferenceable(97) %0, ptr noundef %1, ptr noundef %2) #1 comdat align 2 {
  %4 = alloca ptr, align 8
  %5 = alloca ptr, align 8
  %6 = alloca ptr, align 8
  store ptr %0, ptr %4, align 8
  store ptr %1, ptr %5, align 8
  store ptr %2, ptr %6, align 8
  %7 = load ptr, ptr %4, align 8
  %8 = call noundef ptr @_ZNK12GraphBuilder5stateEv(ptr noundef nonnull align 8 dereferenceable(97) %7)
  %9 = load ptr, ptr %5, align 8
  %10 = load ptr, ptr %6, align 8
  call void @_ZN10ValueStack4pushEP9ValueTypeP11Instruction(ptr noundef nonnull align 8 dereferenceable(81) %8, ptr noundef %9, ptr noundef %10)
  ret void
}

; Function Attrs: mustprogress nounwind uwtable
define linkonce_odr hidden noundef ptr @_ZNK10ValueStack8local_atEi(ptr noundef nonnull align 8 dereferenceable(81) %0, i32 noundef %1) #1 comdat align 2 {
  %3 = alloca ptr, align 8
  %4 = alloca i32, align 4
  %5 = alloca ptr, align 8
  store ptr %0, ptr %3, align 8
  store i32 %1, ptr %4, align 4
  %6 = load ptr, ptr %3, align 8
  %7 = getelementptr inbounds %class.ValueStack, ptr %6, i32 0, i32 4
  %8 = load i32, ptr %4, align 4
  %9 = call noundef nonnull align 8 dereferenceable(8) ptr @_ZNK17GrowableArrayViewIP11InstructionE2atEi(ptr noundef nonnull align 8 dereferenceable(16) %7, i32 noundef %8)
  %10 = load ptr, ptr %9, align 8
  store ptr %10, ptr %5, align 8
  %11 = load ptr, ptr %5, align 8
  ret ptr %11
}

; Function Attrs: mustprogress nounwind uwtable
define linkonce_odr hidden noundef ptr @_ZNK12GraphBuilder5stateEv(ptr noundef nonnull align 8 dereferenceable(97) %0) #1 comdat align 2 {
  %2 = alloca ptr, align 8
  store ptr %0, ptr %2, align 8
  %3 = load ptr, ptr %2, align 8
  %4 = getelementptr inbounds %class.GraphBuilder, ptr %3, i32 0, i32 11
  %5 = load ptr, ptr %4, align 8
  ret ptr %5
}

; Function Attrs: mustprogress nounwind uwtable
define hidden void @_ZN12GraphBuilder10load_localEP9ValueTypei(ptr noundef nonnull align 8 dereferenceable(97) %0, ptr noundef %1, i32 noundef %2) #1 align 2 {
  %4 = alloca ptr, align 8
  %5 = alloca ptr, align 8
  %6 = alloca i32, align 4
  %7 = alloca ptr, align 8
  store ptr %0, ptr %4, align 8
  store ptr %1, ptr %5, align 8
  store i32 %2, ptr %6, align 4
  %8 = load ptr, ptr %4, align 8
  %9 = call noundef ptr @_ZNK12GraphBuilder5stateEv(ptr noundef nonnull align 8 dereferenceable(97) %8)
  %10 = load i32, ptr %6, align 4
  %11 = call noundef ptr @_ZNK10ValueStack8local_atEi(ptr noundef nonnull align 8 dereferenceable(81) %9, i32 noundef %10)
  store ptr %11, ptr %7, align 8
  %12 = load ptr, ptr %5, align 8
  %13 = load ptr, ptr %7, align 8
  call void @_ZNK12GraphBuilder4pushEP9ValueTypeP11Instruction(ptr noundef nonnull align 8 dereferenceable(97) %8, ptr noundef %12, ptr noundef %13)
  ret void
}