; Function Attrs: mustprogress nounwind uwtable
define hidden void @_ZN12GraphBuilder10load_localEP9ValueTypei(ptr nocapture noundef nonnull readonly align 8 dereferenceable(97) %0, ptr noundef %1, i32 noundef %2) local_unnamed_addr #0 align 2 {
  %4 = getelementptr inbounds i8, ptr %0, i64 80
  %5 = load ptr, ptr %4, align 8
  %6 = getelementptr inbounds i8, ptr %5, i64 32
  %7 = load ptr, ptr %6, align 8
  %8 = sext i32 %2 to i64
  %9 = getelementptr inbounds ptr, ptr %7, i64 %8
  %10 = load ptr, ptr %9, align 8
  tail call void @_ZN10ValueStack4pushEP9ValueTypeP11Instruction(ptr noundef nonnull align 8 dereferenceable(81) %5, ptr noundef %1, ptr noundef %10)
  ret void
}